; Function Attrs: mustprogress uwtable
define noundef nonnull align 8 dereferenceable(8) ptr @_ZN32pxrInternal_v0_24__pxrReserved__lsERSoRKNS_16SdfValueTypeNameE(ptr noundef nonnull align 8 dereferenceable(8) %0, ptr noundef nonnull readonly align 8 captures(none) dereferenceable(8) %1) local_unnamed_addr #1 personality ptr @__gxx_personality_v0 {
  %3 = load ptr, ptr %1, align 8, !noalias !6
  %4 = getelementptr inbounds nuw i8, ptr %3, i64 8
  %5 = load i64, ptr %4, align 8, !noalias !6
  %6 = and i64 %5, 7
  %.not.i.i.i = icmp eq i64 %6, 0
  br i1 %.not.i.i.i, label %_ZNK32pxrInternal_v0_24__pxrReserved__16SdfValueTypeName10GetAsTokenEv.exit, label %7

7:                                                ; preds = %2
  %8 = and i64 %5, -8
  %9 = inttoptr i64 %8 to ptr
  %10 = atomicrmw add ptr %9, i32 2 monotonic, align 4, !noalias !6
  %11 = and i32 %10, 1
  %.not1.i.i.i = icmp eq i32 %11, 0
  %12 = select i1 %.not1.i.i.i, i64 %8, i64 %5
  br label %_ZNK32pxrInternal_v0_24__pxrReserved__16SdfValueTypeName10GetAsTokenEv.exit

_ZNK32pxrInternal_v0_24__pxrReserved__16SdfValueTypeName10GetAsTokenEv.exit: ; preds = %7, %2
  %.sroa.0.0 = phi i64 [ %5, %2 ], [ %12, %7 ]
  %13 = and i64 %.sroa.0.0, -8
  %.not.i = icmp eq i64 %13, 0
  br i1 %.not.i, label %17, label %14

14:                                               ; preds = %_ZNK32pxrInternal_v0_24__pxrReserved__16SdfValueTypeName10GetAsTokenEv.exit
  %15 = inttoptr i64 %13 to ptr
  %16 = getelementptr inbounds nuw i8, ptr %15, i64 16
  br label %_ZNK32pxrInternal_v0_24__pxrReserved__7TfToken9GetStringB5cxx11Ev.exit

17:                                               ; preds = %_ZNK32pxrInternal_v0_24__pxrReserved__16SdfValueTypeName10GetAsTokenEv.exit
  %18 = invoke noundef nonnull align 8 dereferenceable(32) ptr @_ZN32pxrInternal_v0_24__pxrReserved__7TfToken15_GetEmptyStringB5cxx11Ev()
          to label %_ZNK32pxrInternal_v0_24__pxrReserved__7TfToken9GetStringB5cxx11Ev.exit unwind label %26

_ZNK32pxrInternal_v0_24__pxrReserved__7TfToken9GetStringB5cxx11Ev.exit: ; preds = %14, %17
  %19 = phi ptr [ %16, %14 ], [ %18, %17 ]
  %20 = invoke noundef nonnull align 8 dereferenceable(8) ptr @_ZStlsIcSt11char_traitsIcESaIcEERSt13basic_ostreamIT_T0_ES7_RKNSt7__cxx1112basic_stringIS4_S5_T1_EE(ptr noundef nonnull align 8 dereferenceable(8) %0, ptr noundef nonnull align 8 dereferenceable(32) %19)
          to label %21 unwind label %26

21:                                               ; preds = %_ZNK32pxrInternal_v0_24__pxrReserved__7TfToken9GetStringB5cxx11Ev.exit
  %22 = and i64 %.sroa.0.0, 7
  %.not.i.i = icmp eq i64 %22, 0
  br i1 %.not.i.i, label %_ZN32pxrInternal_v0_24__pxrReserved__7TfTokenD2Ev.exit, label %23

23:                                               ; preds = %21
  %24 = inttoptr i64 %13 to ptr
  %25 = atomicrmw sub ptr %24, i32 2 release, align 4
  br label %_ZN32pxrInternal_v0_24__pxrReserved__7TfTokenD2Ev.exit

_ZN32pxrInternal_v0_24__pxrReserved__7TfTokenD2Ev.exit: ; preds = %21, %23
  ret ptr %20

26:                                               ; preds = %17, %_ZNK32pxrInternal_v0_24__pxrReserved__7TfToken9GetStringB5cxx11Ev.exit
  %27 = landingpad { ptr, i32 }
          cleanup
  %28 = and i64 %.sroa.0.0, 7
  %.not.i.i3 = icmp eq i64 %28, 0
  br i1 %.not.i.i3, label %_ZN32pxrInternal_v0_24__pxrReserved__7TfTokenD2Ev.exit4, label %29

29:                                               ; preds = %26
  %30 = inttoptr i64 %13 to ptr
  %31 = atomicrmw sub ptr %30, i32 2 release, align 4
  br label %_ZN32pxrInternal_v0_24__pxrReserved__7TfTokenD2Ev.exit4

_ZN32pxrInternal_v0_24__pxrReserved__7TfTokenD2Ev.exit4: ; preds = %26, %29
  resume { ptr, i32 } %27
}